target datalayout = "e-m:e-p270:32:32-p271:32:32-p272:64:64-i64:64-i128:128-f80:128-n8:16:32:64-S128"
target triple = "x86_64-pc-linux-gnu"

%struct.AVAudioFifo = type { ptr, i32, i32, i32, i32, i32, i32 }

; Function Attrs: nounwind uwtable
define void @av_audio_fifo_free(ptr noundef %0) #0 {
  %2 = alloca ptr, align 8
  %3 = alloca i32, align 4
  store ptr %0, ptr %2, align 8, !tbaa !4
  %4 = load ptr, ptr %2, align 8, !tbaa !4
  %5 = icmp ne ptr %4, null
  br i1 %5, label %6, label %33

6:                                                ; preds = %1
  %7 = load ptr, ptr %2, align 8, !tbaa !4
  %8 = getelementptr inbounds nuw %struct.AVAudioFifo, ptr %7, i32 0, i32 0
  %9 = load ptr, ptr %8, align 8, !tbaa !9
  %10 = icmp ne ptr %9, null
  br i1 %10, label %11, label %31

11:                                               ; preds = %6
  call void @llvm.lifetime.start.p0(i64 4, ptr %3) #3
  store i32 0, ptr %3, align 4, !tbaa !14
  br label %12

12:                                               ; preds = %25, %11
  %13 = load i32, ptr %3, align 4, !tbaa !14
  %14 = load ptr, ptr %2, align 8, !tbaa !4
  %15 = getelementptr inbounds nuw %struct.AVAudioFifo, ptr %14, i32 0, i32 1
  %16 = load i32, ptr %15, align 8, !tbaa !15
  %17 = icmp slt i32 %13, %16
  br i1 %17, label %18, label %28

18:                                               ; preds = %12
  %19 = load ptr, ptr %2, align 8, !tbaa !4
  %20 = getelementptr inbounds nuw %struct.AVAudioFifo, ptr %19, i32 0, i32 0
  %21 = load ptr, ptr %20, align 8, !tbaa !9
  %22 = load i32, ptr %3, align 4, !tbaa !14
  %23 = sext i32 %22 to i64
  %24 = getelementptr inbounds ptr, ptr %21, i64 %23
  call void @av_fifo_freep2(ptr noundef %24)
  br label %25

25:                                               ; preds = %18
  %26 = load i32, ptr %3, align 4, !tbaa !14
  %27 = add nsw i32 %26, 1
  store i32 %27, ptr %3, align 4, !tbaa !14
  br label %12, !llvm.loop !16

28:                                               ; preds = %12
  %29 = load ptr, ptr %2, align 8, !tbaa !4
  %30 = getelementptr inbounds nuw %struct.AVAudioFifo, ptr %29, i32 0, i32 0
  call void @av_freep(ptr noundef %30)
  call void @llvm.lifetime.end.p0(i64 4, ptr %3) #3
  br label %31

31:                                               ; preds = %28, %6
  %32 = load ptr, ptr %2, align 8, !tbaa !4
  call void @av_free(ptr noundef %32)
  br label %33

33:                                               ; preds = %31, %1
  ret void
}

; Function Attrs: nounwind uwtable
define ptr @av_audio_fifo_alloc(i32 noundef %0, i32 noundef %1, i32 noundef %2) #0 {
  %4 = alloca ptr, align 8
  %5 = alloca i32, align 4
  %6 = alloca i32, align 4
  %7 = alloca i32, align 4
  %8 = alloca ptr, align 8
  %9 = alloca i32, align 4
  %10 = alloca i32, align 4
  %11 = alloca i32, align 4
  store i32 %0, ptr %5, align 4, !tbaa !14
  store i32 %1, ptr %6, align 4, !tbaa !14
  store i32 %2, ptr %7, align 4, !tbaa !14
  call void @llvm.lifetime.start.p0(i64 8, ptr %8) #3
  call void @llvm.lifetime.start.p0(i64 4, ptr %9) #3
  call void @llvm.lifetime.start.p0(i64 4, ptr %10) #3
  %12 = load i32, ptr %6, align 4, !tbaa !14
  %13 = load i32, ptr %7, align 4, !tbaa !14
  %14 = load i32, ptr %5, align 4, !tbaa !14
  %15 = call i32 @av_samples_get_buffer_size(ptr noundef %9, i32 noundef %12, i32 noundef %13, i32 noundef %14, i32 noundef 1)
  %16 = icmp slt i32 %15, 0
  br i1 %16, label %17, label %18

17:                                               ; preds = %3
  store ptr null, ptr %4, align 8
  store i32 1, ptr %11, align 4
  br label %94

18:                                               ; preds = %3
  %19 = call noalias ptr @av_mallocz(i64 noundef 32)
  store ptr %19, ptr %8, align 8, !tbaa !4
  %20 = load ptr, ptr %8, align 8, !tbaa !4
  %21 = icmp ne ptr %20, null
  br i1 %21, label %23, label %22

22:                                               ; preds = %18
  store ptr null, ptr %4, align 8
  store i32 1, ptr %11, align 4
  br label %94

23:                                               ; preds = %18
  %24 = load i32, ptr %6, align 4, !tbaa !14
  %25 = load ptr, ptr %8, align 8, !tbaa !4
  %26 = getelementptr inbounds nuw %struct.AVAudioFifo, ptr %25, i32 0, i32 4
  store i32 %24, ptr %26, align 4, !tbaa !18
  %27 = load i32, ptr %5, align 4, !tbaa !14
  %28 = load ptr, ptr %8, align 8, !tbaa !4
  %29 = getelementptr inbounds nuw %struct.AVAudioFifo, ptr %28, i32 0, i32 5
  store i32 %27, ptr %29, align 8, !tbaa !19
  %30 = load i32, ptr %9, align 4, !tbaa !14
  %31 = load i32, ptr %7, align 4, !tbaa !14
  %32 = sdiv i32 %30, %31
  %33 = load ptr, ptr %8, align 8, !tbaa !4
  %34 = getelementptr inbounds nuw %struct.AVAudioFifo, ptr %33, i32 0, i32 6
  store i32 %32, ptr %34, align 4, !tbaa !20
  %35 = load i32, ptr %5, align 4, !tbaa !14
  %36 = call i32 @av_sample_fmt_is_planar(i32 noundef %35)
  %37 = icmp ne i32 %36, 0
  br i1 %37, label %38, label %40

38:                                               ; preds = %23
  %39 = load i32, ptr %6, align 4, !tbaa !14
  br label %41

40:                                               ; preds = %23
  br label %41

41:                                               ; preds = %40, %38
  %42 = phi i32 [ %39, %38 ], [ 1, %40 ]
  %43 = load ptr, ptr %8, align 8, !tbaa !4
  %44 = getelementptr inbounds nuw %struct.AVAudioFifo, ptr %43, i32 0, i32 1
  store i32 %42, ptr %44, align 8, !tbaa !15
  %45 = load ptr, ptr %8, align 8, !tbaa !4
  %46 = getelementptr inbounds nuw %struct.AVAudioFifo, ptr %45, i32 0, i32 1
  %47 = load i32, ptr %46, align 8, !tbaa !15
  %48 = sext i32 %47 to i64
  %49 = call noalias ptr @av_calloc(i64 noundef %48, i64 noundef 8)
  %50 = load ptr, ptr %8, align 8, !tbaa !4
  %51 = getelementptr inbounds nuw %struct.AVAudioFifo, ptr %50, i32 0, i32 0
  store ptr %49, ptr %51, align 8, !tbaa !9
  %52 = load ptr, ptr %8, align 8, !tbaa !4
  %53 = getelementptr inbounds nuw %struct.AVAudioFifo, ptr %52, i32 0, i32 0
  %54 = load ptr, ptr %53, align 8, !tbaa !9
  %55 = icmp ne ptr %54, null
  br i1 %55, label %57, label %56

56:                                               ; preds = %41
  br label %92

57:                                               ; preds = %41
  store i32 0, ptr %10, align 4, !tbaa !14
  br label %58

58:                                               ; preds = %84, %57
  %59 = load i32, ptr %10, align 4, !tbaa !14
  %60 = load ptr, ptr %8, align 8, !tbaa !4
  %61 = getelementptr inbounds nuw %struct.AVAudioFifo, ptr %60, i32 0, i32 1
  %62 = load i32, ptr %61, align 8, !tbaa !15
  %63 = icmp slt i32 %59, %62
  br i1 %63, label %64, label %87

64:                                               ; preds = %58
  %65 = load i32, ptr %9, align 4, !tbaa !14
  %66 = sext i32 %65 to i64
  %67 = call ptr @av_fifo_alloc2(i64 noundef %66, i64 noundef 1, i32 noundef 0)
  %68 = load ptr, ptr %8, align 8, !tbaa !4
  %69 = getelementptr inbounds nuw %struct.AVAudioFifo, ptr %68, i32 0, i32 0
  %70 = load ptr, ptr %69, align 8, !tbaa !9
  %71 = load i32, ptr %10, align 4, !tbaa !14
  %72 = sext i32 %71 to i64
  %73 = getelementptr inbounds ptr, ptr %70, i64 %72
  store ptr %67, ptr %73, align 8, !tbaa !21
  %74 = load ptr, ptr %8, align 8, !tbaa !4
  %75 = getelementptr inbounds nuw %struct.AVAudioFifo, ptr %74, i32 0, i32 0
  %76 = load ptr, ptr %75, align 8, !tbaa !9
  %77 = load i32, ptr %10, align 4, !tbaa !14
  %78 = sext i32 %77 to i64
  %79 = getelementptr inbounds ptr, ptr %76, i64 %78
  %80 = load ptr, ptr %79, align 8, !tbaa !21
  %81 = icmp ne ptr %80, null
  br i1 %81, label %83, label %82

82:                                               ; preds = %64
  br label %92

83:                                               ; preds = %64
  br label %84

84:                                               ; preds = %83
  %85 = load i32, ptr %10, align 4, !tbaa !14
  %86 = add nsw i32 %85, 1
  store i32 %86, ptr %10, align 4, !tbaa !14
  br label %58, !llvm.loop !23

87:                                               ; preds = %58
  %88 = load i32, ptr %7, align 4, !tbaa !14
  %89 = load ptr, ptr %8, align 8, !tbaa !4
  %90 = getelementptr inbounds nuw %struct.AVAudioFifo, ptr %89, i32 0, i32 3
  store i32 %88, ptr %90, align 8, !tbaa !24
  %91 = load ptr, ptr %8, align 8, !tbaa !4
  store ptr %91, ptr %4, align 8
  store i32 1, ptr %11, align 4
  br label %94

92:                                               ; preds = %82, %56
  %93 = load ptr, ptr %8, align 8, !tbaa !4
  call void @av_audio_fifo_free(ptr noundef %93)
  store ptr null, ptr %4, align 8
  store i32 1, ptr %11, align 4
  br label %94

94:                                               ; preds = %92, %87, %22, %17
  call void @llvm.lifetime.end.p0(i64 4, ptr %10) #3
  call void @llvm.lifetime.end.p0(i64 4, ptr %9) #3
  call void @llvm.lifetime.end.p0(i64 8, ptr %8) #3
  %95 = load ptr, ptr %4, align 8
  ret ptr %95
}