; Function Attrs: nounwind uwtable
define ptr @av_audio_fifo_alloc(i32 noundef %0, i32 noundef %1, i32 noundef %2) local_unnamed_addr #0 {
  %4 = alloca i32, align 4
  call void @llvm.lifetime.start.p0(i64 4, ptr nonnull %4) #5
  %5 = call i32 @av_samples_get_buffer_size(ptr noundef nonnull %4, i32 noundef %1, i32 noundef %2, i32 noundef %0, i32 noundef 1) #5
  %6 = icmp slt i32 %5, 0
  br i1 %6, label %38, label %7

7:                                                ; preds = %3
  %8 = call noalias ptr @av_mallocz(i64 noundef 32) #5
  %.not = icmp eq ptr %8, null
  br i1 %.not, label %38, label %9

9:                                                ; preds = %7
  %10 = getelementptr inbounds nuw i8, ptr %8, i64 20
  store i32 %1, ptr %10, align 4, !tbaa !15
  %11 = getelementptr inbounds nuw i8, ptr %8, i64 24
  store i32 %0, ptr %11, align 8, !tbaa !16
  %12 = load i32, ptr %4, align 4, !tbaa !17
  %13 = sdiv i32 %12, %2
  %14 = getelementptr inbounds nuw i8, ptr %8, i64 28
  store i32 %13, ptr %14, align 4, !tbaa !18
  %15 = call i32 @av_sample_fmt_is_planar(i32 noundef %0) #5
  %.not29 = icmp eq i32 %15, 0
  %16 = select i1 %.not29, i32 1, i32 %1
  %17 = getelementptr inbounds nuw i8, ptr %8, i64 8
  store i32 %16, ptr %17, align 8, !tbaa !12
  %18 = sext i32 %16 to i64
  %19 = call noalias ptr @av_calloc(i64 noundef %18, i64 noundef 8) #5
  store ptr %19, ptr %8, align 8, !tbaa !4
  %.not30 = icmp eq ptr %19, null
  br i1 %.not30, label %av_audio_fifo_free.exit, label %.preheader

.preheader:                                       ; preds = %9
  %20 = icmp sgt i32 %16, 0
  br i1 %20, label %.lr.ph, label %._crit_edge

21:                                               ; preds = %.lr.ph
  %indvars.iv.next = add nuw nsw i64 %indvars.iv, 1
  %22 = load i32, ptr %17, align 8, !tbaa !12
  %23 = sext i32 %22 to i64
  %24 = icmp slt i64 %indvars.iv.next, %23
  br i1 %24, label %.lr.ph, label %._crit_edge, !llvm.loop !19

.lr.ph:                                           ; preds = %.preheader, %21
  %indvars.iv = phi i64 [ %indvars.iv.next, %21 ], [ 0, %.preheader ]
  %25 = load i32, ptr %4, align 4, !tbaa !17
  %26 = sext i32 %25 to i64
  %27 = call ptr @av_fifo_alloc2(i64 noundef %26, i64 noundef 1, i32 noundef 0) #5
  %28 = load ptr, ptr %8, align 8, !tbaa !4
  %29 = getelementptr inbounds nuw ptr, ptr %28, i64 %indvars.iv
  store ptr %27, ptr %29, align 8, !tbaa !20
  %.not31 = icmp eq ptr %27, null
  br i1 %.not31, label %.preheader.i, label %21

._crit_edge:                                      ; preds = %21, %.preheader
  %30 = getelementptr inbounds nuw i8, ptr %8, i64 16
  store i32 %2, ptr %30, align 8, !tbaa !22
  br label %38

.preheader.i:                                     ; preds = %.lr.ph
  %31 = load i32, ptr %17, align 8, !tbaa !12
  %32 = icmp sgt i32 %31, 0
  br i1 %32, label %.lr.ph.i, label %._crit_edge.i

.lr.ph.i:                                         ; preds = %.preheader.i, %.lr.ph.i
  %indvars.iv.i = phi i64 [ %indvars.iv.next.i, %.lr.ph.i ], [ 0, %.preheader.i ]
  %33 = load ptr, ptr %8, align 8, !tbaa !4
  %34 = getelementptr inbounds nuw ptr, ptr %33, i64 %indvars.iv.i
  call void @av_fifo_freep2(ptr noundef %34) #5
  %indvars.iv.next.i = add nuw nsw i64 %indvars.iv.i, 1
  %35 = load i32, ptr %17, align 8, !tbaa !12
  %36 = sext i32 %35 to i64
  %37 = icmp slt i64 %indvars.iv.next.i, %36
  br i1 %37, label %.lr.ph.i, label %._crit_edge.i, !llvm.loop !13

._crit_edge.i:                                    ; preds = %.lr.ph.i, %.preheader.i
  call void @av_freep(ptr noundef nonnull %8) #5
  br label %av_audio_fifo_free.exit

av_audio_fifo_free.exit:                          ; preds = %9, %._crit_edge.i
  call void @av_free(ptr noundef nonnull %8) #5
  br label %38

38:                                               ; preds = %7, %3, %av_audio_fifo_free.exit, %._crit_edge
  %.027 = phi ptr [ null, %av_audio_fifo_free.exit ], [ %8, %._crit_edge ], [ null, %3 ], [ null, %7 ]
  call void @llvm.lifetime.end.p0(i64 4, ptr nonnull %4) #5
  ret ptr %.027
}